EXPORTS
 "_Z12Loglikei_GLMiiRN4arma3MatIdEERNS_3ColIdEEiS5_S4_S1_S1_S1_S1_S1_S1_S5_S5_S2_S2_S2_S2_S2_S2_S2_dS5_S5_S5_S5_S2_S5_ddiS5_S5_S2_S2_iS5_bS5_S5_S5_ibS2_iS5_iiiiS5_"
 "_Z15Loglikei_latentRN4arma3ColIdEERiS3_RNS_3MatIdEES3_S2_S2_S6_S6_S6_S6_S6_S6_S2_S2_S6_S6_S6_S6_S6_S6_S6_Rd"
 "_Z15MatCovPosterioriiRN4arma3ColIdEES2_S2_S2_S2_RNS_3MatIdEES2_S5_S5_S2_iS5_S5_S2_S1_S2_S2_S5_di"
 "_Z18EsperancePosterioriiRN4arma3ColIdEES2_S2_S2_S2_RNS_3MatIdEES2_S5_S5_S2_iS5_S5_S2_S1_S2_S2_S5_di"
 "_Z6LoglikiiRN4arma3ColIdEES2_S2_S2_S2_RNS_3MatIdEEiS2_iS2_S2_S5_S5_S2_S5_S5_S2_iS5_S5_S2_bS5_S5_S2_iS2_S2_bibiS5_S5_S2_S2_S2_S2_S2_S5_d"
 "_Z6MatCoviiN4arma3MatIdEEiNS_3ColIdEES3_S1_S1_S1_S1_S1_S3_S3_S1_S1_S1_S1_S1_S1_S1_d"
 "_Z8compFun0i"
 "_Z8compFun1i"
 "_Z8compFun2i"
 "_Z8LoglikeiiiN4arma3MatIdEEiNS_3ColIdEES3_S1_S1_S1_S1_S1_S1_S3_S3_S1_S1_S1_S1_S1_S1_S1_d"
 "_Z9EsperanceiiN4arma3MatIdEEiNS_3ColIdEES3_S1_S1_S1_S1_S1_S3_S3_S1_S1_S1_S1_S1_S1_S1_d"
 "_Z9normalCDFd"
 "_ZGVN4arma5DatumIdE3nanE"
 "_ZN4arma12arma_ostream13modify_streamIdEExRSoPKT_j"
 "_ZN4arma12arma_ostream5printIdEEvRSoRKNS_3MatIT_EEb"
 "_ZN4arma27glue_times_redirect2_helperILb0EE5applyINS_12subview_colsIdEENS_11subview_colIdEEEEvRNS_3MatINT_9elem_typeEEERKNS_4GlueIS8_T0_NS_10glue_timesEEE"
 "_ZN4arma27glue_times_redirect2_helperILb0EE5applyINS_7subviewIdEES4_EEvRNS_3MatINT_9elem_typeEEERKNS_4GlueIS6_T0_NS_10glue_timesEEE"
 "_ZN4arma27glue_times_redirect3_helperILb0EE5applyINS_3MatIdEENS_4GlueINS5_INS5_IS4_S4_NS_10glue_timesEEES4_S6_EENS_2OpIS7_NS_9op_htransEEES6_EENS9_IS4_SA_EEEEvRNS3_INT_9elem_typeEEERKNS5_INS5_ISE_T0_S6_EET1_S6_EE"
 "_ZN4arma27glue_times_redirect3_helperILb0EE5applyINS_3MatIdEENS_4GlueINS5_IS4_NS_5eGlueINS6_INS5_INS5_INS5_IS4_S4_NS_10glue_timesEEES4_S7_EENS_2OpINS_7subviewIdEENS_9op_htransEEES7_EENS5_INS5_ISC_NSA_IS4_SD_EES7_EENSA_IS8_SD_EES7_EENS_10eglue_plusEEENS5_INS5_ISC_S4_S7_EESE_S7_EESK_EES7_EESG_S7_EESG_EEvRNS3_INT_9elem_typeEEERKNS5_INS5_ISR_T0_S7_EET1_S7_EE"
 "_ZN4arma27glue_times_redirect3_helperILb0EE5applyINS_3MatIdEENS_4GlueINS5_IS4_NS_5eGlueINS6_INS6_INS5_INS5_INS5_IS4_S4_NS_10glue_timesEEES4_S7_EENS_2OpIS8_NS_9op_htransEEES7_EENS5_IS9_NSA_INS_7subviewIdEESB_EES7_EENS_10eglue_plusEEENS5_INS5_ISF_NSA_IS4_SB_EES7_EESC_S7_EESI_EENS5_INS5_ISF_S4_S7_EESG_S7_EESI_EES7_EESK_S7_EESK_EEvRNS3_INT_9elem_typeEEERKNS5_INS5_IST_T0_S7_EET1_S7_EE"
 "_ZN4arma27glue_times_redirect3_helperILb0EE5applyINS_7subviewIdEENS_2OpINS_3MatIdEENS_9op_htransEEENS5_INS_4GlueIS7_S7_NS_10glue_timesEEES8_EEEEvRNS6_INT_9elem_typeEEERKNSA_INSA_ISE_T0_SB_EET1_SB_EE"
 "_ZN4arma27glue_times_redirect3_helperILb0EE5applyINS_7subviewIdEENS_3MatIdEENS_2OpIS4_NS_9op_htransEEEEEvRNS5_INT_9elem_typeEEERKNS_4GlueINSE_ISA_T0_NS_10glue_timesEEET1_SG_EE"
 "_ZN4arma27glue_times_redirect3_helperILb1EE5applyINS_2OpINS_3ColIdEENS_9op_htransEEENS3_INS_3MatIdEENS_18op_inv_spd_defaultEEES5_EEvRNS8_INT_9elem_typeEEERKNS_4GlueINSG_ISC_T0_NS_10glue_timesEEET1_SI_EE"
 "_ZN4arma3ColIdEC1ERKS1_"
 "_ZN4arma3ColIdEC1INS_2OpINS_11subview_rowIdEENS_9op_htransEEEEERKNS_4BaseIdT_EE"
 "_ZN4arma3ColIdEC1INS_3GenIS1_NS_8gen_onesEEEEERKNS_4BaseIdT_EE"
 "_ZN4arma3ColIdEC1INS_3GenIS1_NS_9gen_zerosEEEEERKNS_4BaseIdT_EE"
 "_ZN4arma3ColIdEC1INS_7subviewIdEEEERKNS_4BaseIdT_EE"
 "_ZN4arma3MatIdE10soft_resetEv"
 "_ZN4arma3MatIdE5resetEv"
 "_ZN4arma3MatIdE9init_coldEv"
 "_ZN4arma3MatIdE9init_warmEjj"
 "_ZN4arma3MatIdE9steal_memERS1_b"
 "_ZN4arma3MatIdEC1ERKNS_7subviewIdEE"
 "_ZN4arma3MatIdEC1ERKS1_"
 "_ZN4arma3MatIdEC1INS_3ColIdEENS_10op_diagmatEEERKNS_2OpIT_T0_EE"
 "_ZN4arma5DatumIdE3nanE"
 "_ZN4arma5ProxyINS_4GlueINS_7subviewIdEES3_NS_10glue_timesEEEED1Ev"
 "_ZN4arma5ProxyINS_4GlueINS1_INS_7subviewIdEENS_2OpINS_3MatIdEENS_9op_htransEEENS_10glue_timesEEENS4_INS1_IS6_S6_S9_EES7_EES9_EEED1Ev"
 "_ZN4arma5ProxyINS_4GlueINS1_INS_7subviewIdEENS_3MatIdEENS_10glue_timesEEENS_2OpIS3_NS_9op_htransEEES6_EEED1Ev"
 "_ZN4arma5ProxyINS_4GlueINS1_INS1_INS_3MatIdEES3_NS_10glue_timesEEES3_S4_EENS_2OpINS_7subviewIdEENS_9op_htransEEES4_EEED1Ev"
 "_ZN4arma5ProxyINS_4GlueINS1_INS1_INS_3MatIdEES3_NS_10glue_timesEEES3_S4_EENS_2OpIS5_NS_9op_htransEEES4_EEED1Ev"
 "_ZN4arma6auxlib16chol_band_commonIdEEbRNS_3MatIT_EEjj"
 "_ZN4arma6auxlib3detIdEEbRT_RNS_3MatIS2_EE"
 "_ZN4arma6op_det12apply_directINS_3MatIdEEEEbRNT_9elem_typeERKNS_4BaseIS5_S4_EE"
 "_ZN4arma6op_max3maxINS_3MatIdEEEENS_11arma_not_cxINT_9elem_typeEE6resultERKNS_4BaseIS6_S5_EE"
 "_ZN4arma7subviewIdE10inplace_opINS_15op_internal_equEEEvRKS1_PKc"
 "_ZN4arma7subviewIdE10inplace_opINS_15op_internal_equENS_2OpIS1_NS_9op_htransEEEEEvRKNS_4BaseIdT0_EEPKc"
 "_ZN4arma7subviewIdE10inplace_opINS_15op_internal_equENS_3eOpINS_11subview_colIdEENS_7eop_expEEEEEvRKNS_4BaseIdT0_EEPKc"
 "_ZN4arma7subviewIdE10inplace_opINS_15op_internal_equENS_3eOpINS_12subview_colsIdEENS_16eop_scalar_timesEEEEEvRKNS_4BaseIdT0_EEPKc"
 "_ZN4arma7subviewIdE10inplace_opINS_15op_internal_equENS_3eOpIS1_NS_16eop_scalar_timesEEEEEvRKNS_4BaseIdT0_EEPKc"
 "_ZN4arma7subviewIdE10inplace_opINS_15op_internal_equENS_3MatIdEEEEvRKNS_4BaseIdT0_EEPKc"
 "_ZN4arma7subviewIdE10inplace_opINS_15op_internal_equENS_4GlueINS_12subview_colsIdEENS_11subview_colIdEENS_10glue_timesEEEEEvRKNS_4BaseIdT0_EEPKc"
 "_ZN4arma7subviewIdE10inplace_opINS_15op_internal_equENS_4GlueINS_12subview_colsIdEENS_3ColIdEENS_10glue_timesEEEEEvRKNS_4BaseIdT0_EEPKc"
 "_ZN4arma7subviewIdE10inplace_opINS_15op_internal_equENS_5eGlueINS_3eOpIS1_NS_16eop_scalar_timesEEENS_4GlueIS1_S1_NS_10glue_timesEEENS_10eglue_plusEEEEEvRKNS_4BaseIdT0_EEPKc"
 "_ZN4arma7subviewIdE10inplace_opINS_15op_internal_equENS_8diagviewIdEEEEvRKNS_4BaseIdT0_EEPKc"
 "_ZN4arma7subviewIdE10inplace_opINS_16op_internal_plusENS_3MatIdEEEEvRKNS_4BaseIdT0_EEPKc"
 "_ZN4arma7subviewIdE10inplace_opINS_16op_internal_plusENS_4GlueINS4_INS_3MatIdEENS4_INS4_IS6_NS_5eGlueINS7_INS4_INS4_INS4_IS6_S6_NS_10glue_timesEEES6_S8_EENS_2OpIS1_NS_9op_htransEEES8_EENS4_INS4_IS1_NSB_IS6_SC_EES8_EENSB_IS9_SC_EES8_EENS_10eglue_plusEEENS4_INS4_IS1_S6_S8_EESD_S8_EESJ_EES8_EESF_S8_EES8_EESF_S8_EEEEvRKNS_4BaseIdT0_EEPKc"
 "_ZN4arma7subviewIdE10inplace_opINS_16op_internal_plusENS_4GlueINS4_INS_3MatIdEENS4_INS4_IS6_NS_5eGlueINS7_INS7_INS4_INS4_INS4_IS6_S6_NS_10glue_timesEEES6_S8_EENS_2OpIS9_NS_9op_htransEEES8_EENS4_ISA_NSB_IS1_SC_EES8_EENS_10eglue_plusEEENS4_INS4_IS1_NSB_IS6_SC_EES8_EESD_S8_EESH_EENS4_INS4_IS1_S6_S8_EESF_S8_EESH_EES8_EESJ_S8_EES8_EESJ_S8_EEEEvRKNS_4BaseIdT0_EEPKc"
 "_ZN4arma7subviewIdE10inplace_opINS_16op_internal_plusENS_4GlueINS4_INS_3MatIdEENS4_INS4_IS6_NS4_INS4_INS4_IS6_S6_NS_10glue_timesEEES6_S7_EENS_2OpIS8_NS_9op_htransEEES7_EES7_EENSA_IS6_SB_EES7_EES7_EESF_S7_EEEEvRKNS_4BaseIdT0_EEPKc"
 "_ZN4arma7subviewIdE10inplace_opINS_16op_internal_plusENS_4GlueINS4_INS_3MatIdEES6_NS_10glue_timesEEENS_2OpIS6_NS_9op_htransEEES7_EEEEvRKNS_4BaseIdT0_EEPKc"
 "_ZN4arma7subviewIdE7extractERNS_3MatIdEERKS1_"
 "_ZN4arma8arma_rng5randnIdE11fill_simpleEPdj"
 "_ZN4arma8arrayops10accumulateIdEET_PKS2_j"
 "_ZN4arma8arrayops12inplace_plusIdEEvPT_PKS2_j"
 "_ZN4arma9op_strans17apply_mat_inplaceIdEEvRNS_3MatIT_EE"
 "_ZN4arma9op_strans17apply_mat_noaliasIdNS_3MatIdEEEEvRNS2_IT_EERKT0_"
 "_ZN4arma9op_trimat12apply_unwrapIdEEvRNS_3MatIT_EERKS4_b"
 "_ZN4armalsIdNS_2OpINS_3ColIdEENS_9op_htransEEEEERSoS6_RKNS_4BaseIT_T0_EE"
 "_ZN4Rcpp10RstreambufILb0EE4syncEv"
 "_ZN4Rcpp10RstreambufILb0EE6xsputnEPKcx"
 "_ZN4Rcpp10RstreambufILb0EE8overflowEi"
 "_ZN4Rcpp10RstreambufILb0EED0Ev"
 "_ZN4Rcpp10RstreambufILb0EED1Ev"
 "_ZN4Rcpp10RstreambufILb1EE4syncEv"
 "_ZN4Rcpp10RstreambufILb1EE6xsputnEPKcx"
 "_ZN4Rcpp10RstreambufILb1EE8overflowEi"
 "_ZN4Rcpp10RstreambufILb1EED0Ev"
 "_ZN4Rcpp10RstreambufILb1EED1Ev"
 "_ZN4Rcpp8RostreamILb0EED0Ev"
 "_ZN4Rcpp8RostreamILb0EED1Ev"
 "_ZN4Rcpp8RostreamILb1EED0Ev"
 "_ZN4Rcpp8RostreamILb1EED1Ev"
 "_ZNKSt5ctypeIcE8do_widenEc"
 "_ZTCN4Rcpp8RostreamILb0EEE0_So"
 "_ZTCN4Rcpp8RostreamILb1EEE0_So"
 "_ZTIN4Rcpp10RstreambufILb0EEE"
 "_ZTIN4Rcpp10RstreambufILb1EEE"
 "_ZTIN4Rcpp8RostreamILb0EEE"
 "_ZTIN4Rcpp8RostreamILb1EEE"
 "_ZTISt11logic_error"
 "_ZTISt12out_of_range"
 "_ZTISt13runtime_error"
 "_ZTISt9bad_alloc"
 "_ZTISt9exception"
 "_ZTSN4Rcpp10RstreambufILb0EEE"
 "_ZTSN4Rcpp10RstreambufILb1EEE"
 "_ZTSN4Rcpp8RostreamILb0EEE"
 "_ZTSN4Rcpp8RostreamILb1EEE"
 "_ZTSSt11logic_error"
 "_ZTSSt12out_of_range"
 "_ZTSSt13runtime_error"
 "_ZTSSt9bad_alloc"
 "_ZTSSt9exception"
 "_ZTTN4Rcpp8RostreamILb0EEE"
 "_ZTTN4Rcpp8RostreamILb1EEE"
 "_ZTv0_n24_N4Rcpp8RostreamILb0EED0Ev"
 "_ZTv0_n24_N4Rcpp8RostreamILb0EED1Ev"
 "_ZTv0_n24_N4Rcpp8RostreamILb1EED0Ev"
 "_ZTv0_n24_N4Rcpp8RostreamILb1EED1Ev"
 "_ZTVN4Rcpp10RstreambufILb0EEE"
 "_ZTVN4Rcpp10RstreambufILb1EEE"
 "_ZTVN4Rcpp8RostreamILb0EEE"
 "_ZTVN4Rcpp8RostreamILb1EEE"
 "_ZZN4arma16arma_cerr_streamIcEERSoPSoE11cerr_stream"
 "_Z8autocorriN4arma3ColIdEES1_S1_iiNS_3MatIdEES1_iS3_S1_S1_S3_d"
 "_Z9autocorriiN4arma3ColIdEENS_3MatIdEES3_S3_S3_S3_S3_S3_S3_d"
 "_ZGVN4arma5DatumIdE3nanE"
 "_ZN4arma10glue_times5applyIdLb0ELb0ELb1ELb1ENS_3MatIdEES3_S3_EEvRNS2_IT_EERKT4_RKT5_RKT6_S4_"
 "_ZN4arma10glue_times5applyIdLb0ELb1ELb1ELb1ENS_3MatIdEES3_S3_EEvRNS2_IT_EERKT4_RKT5_RKT6_S4_"
 "_ZN4arma10glue_times5applyIdLb0ELb1ELb1ENS_3MatIdEES3_EEvRNS2_IT_EERKT3_RKT4_S4_"
 "_ZN4arma27glue_times_redirect2_helperILb0EE5applyINS_7subviewIdEES4_EEvRNS_3MatINT_9elem_typeEEERKNS_4GlueIS6_T0_NS_10glue_timesEEE"
 "_ZN4arma27glue_times_redirect3_helperILb0EE5applyINS_3eOpINS_4GlueINS_3MatIdEES6_NS_10glue_timesEEENS_16eop_scalar_timesEEES6_NS_2OpINS_7subviewIdEENS_9op_htransEEEEEvRNS5_INT_9elem_typeEEERKNS4_INS4_ISG_T0_S7_EET1_S7_EE"
 "_ZN4arma27glue_times_redirect3_helperILb0EE5applyINS_3eOpINS_4GlueINS_3MatIdEES6_NS_10glue_timesEEENS_16eop_scalar_timesEEES6_NS_2OpIS8_NS_9op_htransEEEEEvRNS5_INT_9elem_typeEEERKNS4_INS4_ISE_T0_S7_EET1_S7_EE"
 "_ZN4arma27glue_times_redirect3_helperILb0EE5applyINS_3eOpINS_7subviewIdEENS_16eop_scalar_timesEEENS_2OpINS_3MatIdEENS_9op_htransEEENS8_INS_4GlueISA_SA_NS_10glue_timesEEESB_EEEEvRNS9_INT_9elem_typeEEERKNSD_INSD_ISH_T0_SE_EET1_SE_EE"
 "_ZN4arma27glue_times_redirect3_helperILb0EE5applyINS_7subviewIdEENS_3MatIdEENS_2OpIS4_NS_9op_htransEEEEEvRNS5_INT_9elem_typeEEERKNS_4GlueINSE_ISA_T0_NS_10glue_timesEEET1_SG_EE"
 "_ZN4arma3MatIdE5resetEv"
 "_ZN4arma3MatIdE9init_coldEv"
 "_ZN4arma3MatIdE9init_warmEjj"
 "_ZN4arma3MatIdEC1INS_3eOpINS_7subviewIdEENS_16eop_scalar_timesEEES6_EERKNS3_IT_T0_EE"
 "_ZN4arma3MatIdEC1INS_7subviewIdEENS_16eop_scalar_timesEEERKNS_3eOpIT_T0_EE"
 "_ZN4arma5DatumIdE3nanE"
 "_ZN4arma7subviewIdE10inplace_opINS_15op_internal_equENS_2OpIS1_NS_9op_htransEEEEEvRKNS_4BaseIdT0_EEPKc"
 "_ZN4arma7subviewIdE10inplace_opINS_15op_internal_equENS_3eOpINS_5eGlueIS1_NS_4GlueIS1_S1_NS_10glue_timesEEENS_10eglue_plusEEENS_16eop_scalar_timesEEEEEvRKNS_4BaseIdT0_EEPKc"
 "_ZN4arma7subviewIdE10inplace_opINS_15op_internal_equENS_3eOpIS1_NS_16eop_scalar_timesEEEEEvRKNS_4BaseIdT0_EEPKc"
 "_ZN4arma7subviewIdE10inplace_opINS_16op_internal_plusENS_5eGlueINS4_INS4_INS_4GlueINS5_INS_3eOpINS5_INS_3MatIdEES8_NS_10glue_timesEEENS_16eop_scalar_timesEEES8_S9_EENS_2OpISA_NS_9op_htransEEES9_EENS5_ISD_NSE_IS1_SF_EES9_EENS_10eglue_plusEEENS5_INS5_INS6_IS1_SB_EENSE_IS8_SF_EES9_EESG_S9_EESK_EENS5_INS5_IS1_S8_S9_EESI_S9_EESK_EEEEvRKNS_4BaseIdT0_EEPKc"
 "_ZN4arma7subviewIdE7extractERNS_3MatIdEERKS1_"
 "_ZN4Rcpp10RstreambufILb0EE4syncEv"
 "_ZN4Rcpp10RstreambufILb0EE6xsputnEPKcx"
 "_ZN4Rcpp10RstreambufILb0EE8overflowEi"
 "_ZN4Rcpp10RstreambufILb0EED0Ev"
 "_ZN4Rcpp10RstreambufILb0EED1Ev"
 "_ZN4Rcpp10RstreambufILb1EE4syncEv"
 "_ZN4Rcpp10RstreambufILb1EE6xsputnEPKcx"
 "_ZN4Rcpp10RstreambufILb1EE8overflowEi"
 "_ZN4Rcpp10RstreambufILb1EED0Ev"
 "_ZN4Rcpp10RstreambufILb1EED1Ev"
 "_ZN4Rcpp8RostreamILb0EED0Ev"
 "_ZN4Rcpp8RostreamILb0EED1Ev"
 "_ZN4Rcpp8RostreamILb1EED0Ev"
 "_ZN4Rcpp8RostreamILb1EED1Ev"
 "_ZTCN4Rcpp8RostreamILb0EEE0_So"
 "_ZTCN4Rcpp8RostreamILb1EEE0_So"
 "_ZTIN4Rcpp10RstreambufILb0EEE"
 "_ZTIN4Rcpp10RstreambufILb1EEE"
 "_ZTIN4Rcpp8RostreamILb0EEE"
 "_ZTIN4Rcpp8RostreamILb1EEE"
 "_ZTISt11logic_error"
 "_ZTISt12out_of_range"
 "_ZTISt13runtime_error"
 "_ZTISt9bad_alloc"
 "_ZTISt9exception"
 "_ZTSN4Rcpp10RstreambufILb0EEE"
 "_ZTSN4Rcpp10RstreambufILb1EEE"
 "_ZTSN4Rcpp8RostreamILb0EEE"
 "_ZTSN4Rcpp8RostreamILb1EEE"
 "_ZTSSt11logic_error"
 "_ZTSSt12out_of_range"
 "_ZTSSt13runtime_error"
 "_ZTSSt9bad_alloc"
 "_ZTSSt9exception"
 "_ZTTN4Rcpp8RostreamILb0EEE"
 "_ZTTN4Rcpp8RostreamILb1EEE"
 "_ZTv0_n24_N4Rcpp8RostreamILb0EED0Ev"
 "_ZTv0_n24_N4Rcpp8RostreamILb0EED1Ev"
 "_ZTv0_n24_N4Rcpp8RostreamILb1EED0Ev"
 "_ZTv0_n24_N4Rcpp8RostreamILb1EED1Ev"
 "_ZTVN4Rcpp10RstreambufILb0EEE"
 "_ZTVN4Rcpp10RstreambufILb1EEE"
 "_ZTVN4Rcpp8RostreamILb0EEE"
 "_ZTVN4Rcpp8RostreamILb1EEE"
 "_Z4prediiRN4arma3ColIdEES2_S2_RNS_3MatIdEES1_S5_S5_S2_biS5_S5_S2_S1_S1_S2_S5_diS1_S1_RN4Rcpp6VectorILi19ENS6_15PreserveStorageEEES1_d"
 "_Z5prediiiN4arma3MatIdEEiNS_3ColIdEES3_S1_S1_S1_S1_S1_S3_S3_S1_S1_S1_S1_RS1_S4_dS4_S4_S3_S3_S3_S3_S3_RN4Rcpp6VectorILi19ENS5_15PreserveStorageEEES3_id"
 "_ZGVN4arma5DatumIdE3nanE"
 "_ZGVZ7dataptrP7SEXPRECE3fun"
 "_ZGVZN4Rcpp20Rcpp_precious_removeEP7SEXPRECE3fun"
 "_ZGVZN4Rcpp22Rcpp_precious_preserveEP7SEXPRECE3fun"
 "_ZN10tinyformat6detail10formatImplERSoPKcPKNS0_9FormatArgEi"
 "_ZN10tinyformat6detail21streamStateFromFormatERSoRbRiPKcPKNS0_9FormatArgES3_i"
 "_ZN10tinyformat6detail9FormatArg10formatImplIPKcEEvRSoS4_S4_iPKv"
 "_ZN10tinyformat6detail9FormatArg9toIntImplIPKcEEiPKv"
 "_ZN10tinyformat6formatIJPKcEEENSt7__cxx1112basic_stringIcSt11char_traitsIcESaIcEEES2_DpRKT_"
 "_ZN10tinyformat6formatIJPKcS2_EEENSt7__cxx1112basic_stringIcSt11char_traitsIcESaIcEEES2_DpRKT_"
 "_ZN4arma10glue_times5applyIdLb0ELb0ELb1ELb1ENS_3MatIdEES3_S3_EEvRNS2_IT_EERKT4_RKT5_RKT6_S4_"
 "_ZN4arma10glue_times5applyIdLb0ELb1ELb1ELb1ENS_3MatIdEES3_S3_EEvRNS2_IT_EERKT4_RKT5_RKT6_S4_"
 "_ZN4arma10glue_times5applyIdLb0ELb1ELb1ENS_3MatIdEES3_EEvRNS2_IT_EERKT3_RKT4_S4_"
 "_ZN4arma18as_scalar_redirectILj2EE5applyINS_2OpINS_5eGlueINS_3ColIdEES6_NS_11eglue_minusEEENS_9op_htransEEES8_EENT_9elem_typeERKNS_4GlueISB_T0_NS_10glue_timesEEE"
 "_ZN4arma27glue_times_redirect2_helperILb0EE5applyINS_7subviewIdEES4_EEvRNS_3MatINT_9elem_typeEEERKNS_4GlueIS6_T0_NS_10glue_timesEEE"
 "_ZN4arma27glue_times_redirect3_helperILb0EE5applyINS_3eOpINS_4GlueINS_3MatIdEES6_NS_10glue_timesEEENS_16eop_scalar_timesEEES6_NS_2OpINS_7subviewIdEENS_9op_htransEEEEEvRNS5_INT_9elem_typeEEERKNS4_INS4_ISG_T0_S7_EET1_S7_EE"
 "_ZN4arma27glue_times_redirect3_helperILb0EE5applyINS_3eOpINS_4GlueINS_3MatIdEES6_NS_10glue_timesEEENS_16eop_scalar_timesEEES6_NS_2OpIS8_NS_9op_htransEEEEEvRNS5_INT_9elem_typeEEERKNS4_INS4_ISE_T0_S7_EET1_S7_EE"
 "_ZN4arma27glue_times_redirect3_helperILb0EE5applyINS_3eOpINS_7subviewIdEENS_16eop_scalar_timesEEENS_2OpINS_3MatIdEENS_9op_htransEEENS8_INS_4GlueISA_SA_NS_10glue_timesEEESB_EEEEvRNS9_INT_9elem_typeEEERKNSD_INSD_ISH_T0_SE_EET1_SE_EE"
 "_ZN4arma27glue_times_redirect3_helperILb0EE5applyINS_7subviewIdEENS_3MatIdEENS_2OpIS4_NS_9op_htransEEEEEvRNS5_INT_9elem_typeEEERKNS_4GlueINSE_ISA_T0_NS_10glue_timesEEET1_SG_EE"
 "_ZN4arma27glue_times_redirect3_helperILb1EE5applyINS_3MatIdEENS_2OpIS4_NS_18op_inv_spd_defaultEEENS_3ColIdEEEEvRNS3_INT_9elem_typeEEERKNS_4GlueINSE_ISA_T0_NS_10glue_timesEEET1_SG_EE"
 "_ZN4arma3ColIdEC1INS_7subviewIdEEEERKNS_4BaseIdT_EE"
 "_ZN4arma3MatIdE10soft_resetEv"
 "_ZN4arma3MatIdE5resetEv"
 "_ZN4arma3MatIdE9init_coldEv"
 "_ZN4arma3MatIdE9init_warmEjj"
 "_ZN4arma3MatIdE9steal_memERS1_b"
 "_ZN4arma3MatIdEC1ERKS1_"
 "_ZN4arma3MatIdEC1INS_3ColIdEENS_10op_diagmatEEERKNS_2OpIT_T0_EE"
 "_ZN4arma3MatIdEC1INS_3eOpINS_7subviewIdEENS_16eop_scalar_timesEEES6_EERKNS3_IT_T0_EE"
 "_ZN4arma3MatIdEC1INS_7subviewIdEENS_16eop_scalar_timesEEERKNS_3eOpIT_T0_EE"
 "_ZN4arma5DatumIdE3nanE"
 "_ZN4arma6auxlib17solve_square_fastINS_3MatIdEEEEbRNS2_INT_9elem_typeEEES7_RKNS_4BaseIS5_S4_EE"
 "_ZN4arma7subviewIdE10inplace_opINS_15op_internal_equEEEvRKS1_PKc"
 "_ZN4arma7subviewIdE10inplace_opINS_15op_internal_equENS_2OpINS_11subview_colIdEENS_9op_htransEEEEEvRKNS_4BaseIdT0_EEPKc"
 "_ZN4arma7subviewIdE10inplace_opINS_15op_internal_equENS_2OpIS1_NS_9op_htransEEEEEvRKNS_4BaseIdT0_EEPKc"
 "_ZN4arma7subviewIdE10inplace_opINS_15op_internal_equENS_3eOpINS_11subview_colIdEENS_16eop_scalar_timesEEEEEvRKNS_4BaseIdT0_EEPKc"
 "_ZN4arma7subviewIdE10inplace_opINS_15op_internal_equENS_3eOpINS_3MatIdEENS_16eop_scalar_timesEEEEEvRKNS_4BaseIdT0_EEPKc"
 "_ZN4arma7subviewIdE10inplace_opINS_15op_internal_equENS_3eOpINS_5eGlueIS1_NS_4GlueIS1_S1_NS_10glue_timesEEENS_10eglue_plusEEENS_16eop_scalar_timesEEEEEvRKNS_4BaseIdT0_EEPKc"
 "_ZN4arma7subviewIdE10inplace_opINS_15op_internal_equENS_3eOpINS4_INS_11subview_colIdEENS_21eop_scalar_minus_postEEENS_19eop_scalar_div_postEEEEEvRKNS_4BaseIdT0_EEPKc"
 "_ZN4arma7subviewIdE10inplace_opINS_15op_internal_equENS_3eOpIS1_NS_16eop_scalar_timesEEEEEvRKNS_4BaseIdT0_EEPKc"
 "_ZN4arma7subviewIdE10inplace_opINS_15op_internal_equENS_3MatIdEEEEvRKNS_4BaseIdT0_EEPKc"
 "_ZN4arma7subviewIdE10inplace_opINS_15op_internal_equENS_4GlueINS_12subview_colsIdEENS_3ColIdEENS_10glue_timesEEEEEvRKNS_4BaseIdT0_EEPKc"
 "_ZN4arma7subviewIdE10inplace_opINS_15op_internal_equENS_4GlueINS4_INS_3MatIdEES1_NS_10glue_timesEEENS_2OpIS6_NS_9op_htransEEES7_EEEEvRKNS_4BaseIdT0_EEPKc"
 "_ZN4arma7subviewIdE10inplace_opINS_15op_internal_equENS_4GlueIS1_NS_2OpINS_3MatIdEENS_9op_htransEEENS_10glue_timesEEEEEvRKNS_4BaseIdT0_EEPKc"
 "_ZN4arma7subviewIdE10inplace_opINS_15op_internal_equENS_5eGlueINS_11subview_colIdEENS_3ColIdEENS_11eglue_minusEEEEEvRKNS_4BaseIdT0_EEPKc"
 "_ZN4arma7subviewIdE10inplace_opINS_15op_internal_equENS_5eGlueINS_3eOpINS_11subview_colIdEENS_16eop_scalar_timesEEENS5_INS_3GenINS_3ColIdEENS_8gen_onesEEES8_EENS_10eglue_plusEEEEEvRKNS_4BaseIdT0_EEPKc"
 "_ZN4arma7subviewIdE10inplace_opINS_16op_internal_plusENS_5eGlueINS4_INS4_INS_4GlueINS5_INS_3eOpINS5_INS_3MatIdEES8_NS_10glue_timesEEENS_16eop_scalar_timesEEES8_S9_EENS_2OpISA_NS_9op_htransEEES9_EENS5_ISD_NSE_IS1_SF_EES9_EENS_10eglue_plusEEENS5_INS5_INS6_IS1_SB_EENSE_IS8_SF_EES9_EESG_S9_EESK_EENS5_INS5_IS1_S8_S9_EESI_S9_EESK_EEEEvRKNS_4BaseIdT0_EEPKc"
 "_ZN4arma7subviewIdE7extractERNS_3MatIdEERKS1_"
 "_ZN4arma8arrayops17inplace_plus_baseIdEEvPT_PKS2_j"
 "_ZN4arma8diagviewIdEaSERKS1_"
 "_ZN4arma9op_strans17apply_mat_noaliasIdNS_3MatIdEEEEvRNS2_IT_EERKT0_"
 "_ZN4Rcpp10RstreambufILb0EE4syncEv"
 "_ZN4Rcpp10RstreambufILb0EE6xsputnEPKcx"
 "_ZN4Rcpp10RstreambufILb0EE8overflowEi"
 "_ZN4Rcpp10RstreambufILb0EED0Ev"
 "_ZN4Rcpp10RstreambufILb0EED1Ev"
 "_ZN4Rcpp10RstreambufILb1EE4syncEv"
 "_ZN4Rcpp10RstreambufILb1EE6xsputnEPKcx"
 "_ZN4Rcpp10RstreambufILb1EE8overflowEi"
 "_ZN4Rcpp10RstreambufILb1EED0Ev"
 "_ZN4Rcpp10RstreambufILb1EED1Ev"
 "_ZN4Rcpp12not_a_matrixD0Ev"
 "_ZN4Rcpp12not_a_matrixD1Ev"
 "_ZN4Rcpp13RcppArmadillo9arma_wrapIN4arma3ColIdEEEEP7SEXPRECRKT_RKNS_9DimensionE"
 "_ZN4Rcpp13unwindProtectEPFP7SEXPRECPvES2_"
 "_ZN4Rcpp14not_compatibleC1IJPKcEEES3_DpOT_"
 "_ZN4Rcpp14not_compatibleD0Ev"
 "_ZN4Rcpp14not_compatibleD1Ev"
 "_ZN4Rcpp16Environment_ImplINS_15PreserveStorageEEC1ERKNSt7__cxx1112basic_stringIcSt11char_traitsIcESaIcEEE"
 "_ZN4Rcpp20Rcpp_precious_removeEP7SEXPREC"
 "_ZN4Rcpp4growINS_6traits12named_objectIdEEEEP7SEXPRECRKT_S5_"
 "_ZN4Rcpp4growINS_6traits12named_objectIN4arma3ColIdEEEEEEP7SEXPRECRKT_S8_"
 "_ZN4Rcpp4stopERKNSt7__cxx1112basic_stringIcSt11char_traitsIcESaIcEEE"
 "_ZN4Rcpp4wrapIdEEP7SEXPRECRKN4arma3ColIT_EE"
 "_ZN4Rcpp6ShieldIP7SEXPRECED1Ev"
 "_ZN4Rcpp6traits14MatrixExporterIN4arma3MatIdEEdE3getEv"
 "_ZN4Rcpp8internal10basic_castILi14EEEP7SEXPRECS3_"
 "_ZN4Rcpp8internal19Rcpp_protected_evalEPv"
 "_ZN4Rcpp8internal9maybeJumpEPv8Rboolean"
 "_ZN4Rcpp8pairlistINS_6traits12named_objectIN4arma3ColIdEEEENS2_IdEES7_S6_S7_S6_EEP7SEXPRECRKT_RKT0_RKT1_RKT2_RKT3_RKT4_"
 "_ZN4Rcpp8RostreamILb0EED0Ev"
 "_ZN4Rcpp8RostreamILb0EED1Ev"
 "_ZN4Rcpp8RostreamILb1EED0Ev"
 "_ZN4Rcpp8RostreamILb1EED1Ev"
 "_ZN4Rcpp9exceptionC1EPKcb"
 "_ZN4Rcpp9exceptionD0Ev"
 "_ZN4Rcpp9exceptionD1Ev"
 "_ZNK4Rcpp12not_a_matrix4whatEv"
 "_ZNK4Rcpp13BindingPolicyINS_16Environment_ImplINS_15PreserveStorageEEEE7BindingcvT_INS_13Function_ImplIS2_EEEEv"
 "_ZNK4Rcpp14not_compatible4whatEv"
 "_ZNK4Rcpp9exception4whatEv"
 "_ZNKSt5ctypeIcE8do_widenEc"
 "_ZNSt7__cxx1115basic_stringbufIcSt11char_traitsIcESaIcEED1Ev"
 "_ZTCN4Rcpp8RostreamILb0EEE0_So"
 "_ZTCN4Rcpp8RostreamILb1EEE0_So"
 "_ZTIN4Rcpp10eval_errorE"
 "_ZTIN4Rcpp10RstreambufILb0EEE"
 "_ZTIN4Rcpp10RstreambufILb1EEE"
 "_ZTIN4Rcpp12not_a_matrixE"
 "_ZTIN4Rcpp14not_compatibleE"
 "_ZTIN4Rcpp17LongjumpExceptionE"
 "_ZTIN4Rcpp8RostreamILb0EEE"
 "_ZTIN4Rcpp8RostreamILb1EEE"
 "_ZTIN4Rcpp9exceptionE"
 "_ZTISt11logic_error"
 "_ZTISt12out_of_range"
 "_ZTISt13runtime_error"
 "_ZTISt9bad_alloc"
 "_ZTISt9exception"
 "_ZTSN4Rcpp10eval_errorE"
 "_ZTSN4Rcpp10RstreambufILb0EEE"
 "_ZTSN4Rcpp10RstreambufILb1EEE"
 "_ZTSN4Rcpp12not_a_matrixE"
 "_ZTSN4Rcpp14not_compatibleE"
 "_ZTSN4Rcpp17LongjumpExceptionE"
 "_ZTSN4Rcpp8RostreamILb0EEE"
 "_ZTSN4Rcpp8RostreamILb1EEE"
 "_ZTSN4Rcpp9exceptionE"
 "_ZTSSt11logic_error"
 "_ZTSSt12out_of_range"
 "_ZTSSt13runtime_error"
 "_ZTSSt9bad_alloc"
 "_ZTSSt9exception"
 "_ZTTN4Rcpp8RostreamILb0EEE"
 "_ZTTN4Rcpp8RostreamILb1EEE"
 "_ZTv0_n24_N4Rcpp8RostreamILb0EED0Ev"
 "_ZTv0_n24_N4Rcpp8RostreamILb0EED1Ev"
 "_ZTv0_n24_N4Rcpp8RostreamILb1EED0Ev"
 "_ZTv0_n24_N4Rcpp8RostreamILb1EED1Ev"
 "_ZTVN4Rcpp10RstreambufILb0EEE"
 "_ZTVN4Rcpp10RstreambufILb1EEE"
 "_ZTVN4Rcpp12not_a_matrixE"
 "_ZTVN4Rcpp14not_compatibleE"
 "_ZTVN4Rcpp8RostreamILb0EEE"
 "_ZTVN4Rcpp8RostreamILb1EEE"
 "_ZTVN4Rcpp9exceptionE"
 "_ZZ7dataptrP7SEXPRECE3fun"
 "_ZZN4arma16arma_cerr_streamIcEERSoPSoE11cerr_stream"
 "_ZZN4Rcpp20Rcpp_precious_removeEP7SEXPRECE3fun"
 "_ZZN4Rcpp22Rcpp_precious_preserveEP7SEXPRECE3fun"
 "_CInLPN2_compoYiNA"
 "_CInLPN2_ConstrA"
 "_CInLPN2_DparChol"
 "_CInLPN2_Esperance"
 "_CInLPN2_EsperancePosterior"
 "_CInLPN2_f_marker"
 "_CInLPN2_f_Yi_r_NA_by0"
 "_CInLPN2_GmatA0totaui"
 "_CInLPN2_GmatprodAstotau"
 "_CInLPN2_KmatDiag"
 "_CInLPN2_Loglik"
 "_CInLPN2_MatCov"
 "_CInLPN2_MatCovPosterior"
 "_CInLPN2_matNui"
 "_CInLPN2_matNui_ui"
 "_CInLPN2_pred"
 "_CInLPN2_ProdA"
 "_CInLPN2_tsGmatprodA0totau"
 "_CInLPN2_vecaijt"
 "_CInLPN2_VecToMat"
 "_CInLPN2_vectorise"
 "_CInLPN2_YiNui"
 "_CInLPN2_YiwoNA"
 "_Z14make_conditionRKNSt7__cxx1112basic_stringIcSt11char_traitsIcESaIcEEEP7SEXPRECS8_S8_"
 "_Z19string_to_try_errorRKNSt7__cxx1112basic_stringIcSt11char_traitsIcESaIcEEE"
 "_Z29rcpp_exception_to_r_conditionRKN4Rcpp9exceptionE"
 "_Z31exception_to_condition_templateIN4Rcpp9exceptionEEP7SEXPRECRKT_b"
 "_Z31exception_to_condition_templateISt9exceptionEP7SEXPRECRKT_b"
 "_ZGVN4arma5DatumIdE3nanE"
 "_ZGVZ20rcpp_get_stack_tracevE3fun"
 "_ZGVZ20rcpp_set_stack_traceP7SEXPRECE3fun"
 "_ZGVZ7dataptrP7SEXPRECE3fun"
 "_ZGVZ8demangleRKNSt7__cxx1112basic_stringIcSt11char_traitsIcESaIcEEEE3funB5cxx11"
 "_ZGVZN4Rcpp20Rcpp_precious_removeEP7SEXPRECE3fun"
 "_ZGVZN4Rcpp22Rcpp_precious_preserveEP7SEXPRECE3fun"
 "_ZGVZN4Rcpp8internal12exitRNGScopeEvE3fun"
 "_ZGVZN4Rcpp8internal13enterRNGScopeEvE3fun"
 "_ZN10tinyformat6detail10formatImplERSoPKcPKNS0_9FormatArgEi"
 "_ZN10tinyformat6detail15formatTruncatedIiEEvRSoRKT_i"
 "_ZN10tinyformat6detail21streamStateFromFormatERSoRbRiPKcPKNS0_9FormatArgES3_i"
 "_ZN10tinyformat6detail9FormatArg10formatImplIiEEvRSoPKcS5_iPKv"
 "_ZN10tinyformat6detail9FormatArg10formatImplIPKcEEvRSoS4_S4_iPKv"
 "_ZN10tinyformat6detail9FormatArg9toIntImplIiEEiPKv"
 "_ZN10tinyformat6detail9FormatArg9toIntImplIPKcEEiPKv"
 "_ZN10tinyformat6formatIJiEEENSt7__cxx1112basic_stringIcSt11char_traitsIcESaIcEEEPKcDpRKT_"
 "_ZN10tinyformat6formatIJPKcEEENSt7__cxx1112basic_stringIcSt11char_traitsIcESaIcEEES2_DpRKT_"
 "_ZN10tinyformat6formatIJPKcS2_EEENSt7__cxx1112basic_stringIcSt11char_traitsIcESaIcEEES2_DpRKT_"
 "_ZN4arma5DatumIdE3nanE"
 "_ZN4Rcpp10RstreambufILb0EE4syncEv"
 "_ZN4Rcpp10RstreambufILb0EE6xsputnEPKcx"
 "_ZN4Rcpp10RstreambufILb0EE8overflowEi"
 "_ZN4Rcpp10RstreambufILb0EED0Ev"
 "_ZN4Rcpp10RstreambufILb0EED1Ev"
 "_ZN4Rcpp10RstreambufILb1EE4syncEv"
 "_ZN4Rcpp10RstreambufILb1EE6xsputnEPKcx"
 "_ZN4Rcpp10RstreambufILb1EE8overflowEi"
 "_ZN4Rcpp10RstreambufILb1EED0Ev"
 "_ZN4Rcpp10RstreambufILb1EED1Ev"
 "_ZN4Rcpp12not_a_matrixD0Ev"
 "_ZN4Rcpp12not_a_matrixD1Ev"
 "_ZN4Rcpp13RcppArmadillo9arma_wrapIN4arma3ColIdEEEEP7SEXPRECRKT_RKNS_9DimensionE"
 "_ZN4Rcpp13unwindProtectEPFP7SEXPRECPvES2_"
 "_ZN4Rcpp14not_compatibleC1IJiEEEPKcDpOT_"
 "_ZN4Rcpp14not_compatibleC1IJPKcS3_EEES3_DpOT_"
 "_ZN4Rcpp14not_compatibleD0Ev"
 "_ZN4Rcpp14not_compatibleD1Ev"
 "_ZN4Rcpp20Rcpp_precious_removeEP7SEXPREC"
 "_ZN4Rcpp22ArmaMat_InputParameterIdN4arma3MatIdEERS3_NS_6traits17integral_constantIbLb0EEEEC2EP7SEXPREC"
 "_ZN4Rcpp22ArmaMat_InputParameterIdN4arma3MatIdEERS3_NS_6traits17integral_constantIbLb0EEEED2Ev"
 "_ZN4Rcpp22ArmaVec_InputParameterIdN4arma3ColIdEERS3_NS_6traits17integral_constantIbLb0EEEEC2EP7SEXPREC"
 "_ZN4Rcpp22ArmaVec_InputParameterIdN4arma3ColIdEERS3_NS_6traits17integral_constantIbLb0EEEED2Ev"
 "_ZN4Rcpp4stopERKNSt7__cxx1112basic_stringIcSt11char_traitsIcESaIcEEE"
 "_ZN4Rcpp4wrapIdEEP7SEXPRECRKN4arma3ColIT_EE"
 "_ZN4Rcpp4wrapIdEEP7SEXPRECRKN4arma3MatIT_EE"
 "_ZN4Rcpp6ShieldIP7SEXPRECED1Ev"
 "_ZN4Rcpp6traits14MatrixExporterIN4arma3MatIdEEdE3getEv"
 "_ZN4Rcpp6traits16IndexingExporterIN4arma3ColIdEEdE3getEv"
 "_ZN4Rcpp8internal10basic_castILi10EEEP7SEXPRECS3_"
 "_ZN4Rcpp8internal10basic_castILi13EEEP7SEXPRECS3_"
 "_ZN4Rcpp8internal10basic_castILi14EEEP7SEXPRECS3_"
 "_ZN4Rcpp8internal10resumeJumpEP7SEXPREC"
 "_ZN4Rcpp8internal12primitive_asIbEET_P7SEXPREC"
 "_ZN4Rcpp8internal12primitive_asIdEET_P7SEXPREC"
 "_ZN4Rcpp8internal12primitive_asIiEET_P7SEXPREC"
 "_ZN4Rcpp8internal17is_Rcpp_eval_callEP7SEXPREC"
 "_ZN4Rcpp8internal19Rcpp_protected_evalEPv"
 "_ZN4Rcpp8internal3nthEP7SEXPRECi"
 "_ZN4Rcpp8internal9maybeJumpEPv8Rboolean"
 "_ZN4Rcpp8RostreamILb0EED0Ev"
 "_ZN4Rcpp8RostreamILb0EED1Ev"
 "_ZN4Rcpp8RostreamILb1EED0Ev"
 "_ZN4Rcpp8RostreamILb1EED1Ev"
 "_ZN4Rcpp9exceptionC1EPKcb"
 "_ZN4Rcpp9exceptionD0Ev"
 "_ZN4Rcpp9exceptionD1Ev"
 "_ZNK4Rcpp12not_a_matrix4whatEv"
 "_ZNK4Rcpp14not_compatible4whatEv"
 "_ZNK4Rcpp9exception21copy_stack_trace_to_rEv"
 "_ZNK4Rcpp9exception4whatEv"
 "_ZNKSt5ctypeIcE8do_widenEc"
 "_ZNSt7__cxx1115basic_stringbufIcSt11char_traitsIcESaIcEED1Ev"
 "_ZTCN4Rcpp8RostreamILb0EEE0_So"
 "_ZTCN4Rcpp8RostreamILb1EEE0_So"
 "_ZTIN4Rcpp10eval_errorE"
 "_ZTIN4Rcpp10RstreambufILb0EEE"
 "_ZTIN4Rcpp10RstreambufILb1EEE"
 "_ZTIN4Rcpp12not_a_matrixE"
 "_ZTIN4Rcpp14not_compatibleE"
 "_ZTIN4Rcpp17LongjumpExceptionE"
 "_ZTIN4Rcpp8internal20InterruptedExceptionE"
 "_ZTIN4Rcpp8RostreamILb0EEE"
 "_ZTIN4Rcpp8RostreamILb1EEE"
 "_ZTIN4Rcpp9exceptionE"
 "_ZTISt11logic_error"
 "_ZTISt9bad_alloc"
 "_ZTISt9exception"
 "_ZTSN4Rcpp10eval_errorE"
 "_ZTSN4Rcpp10RstreambufILb0EEE"
 "_ZTSN4Rcpp10RstreambufILb1EEE"
 "_ZTSN4Rcpp12not_a_matrixE"
 "_ZTSN4Rcpp14not_compatibleE"
 "_ZTSN4Rcpp17LongjumpExceptionE"
 "_ZTSN4Rcpp8internal20InterruptedExceptionE"
 "_ZTSN4Rcpp8RostreamILb0EEE"
 "_ZTSN4Rcpp8RostreamILb1EEE"
 "_ZTSN4Rcpp9exceptionE"
 "_ZTSSt11logic_error"
 "_ZTSSt9bad_alloc"
 "_ZTSSt9exception"
 "_ZTTN4Rcpp8RostreamILb0EEE"
 "_ZTTN4Rcpp8RostreamILb1EEE"
 "_ZTv0_n24_N4Rcpp8RostreamILb0EED0Ev"
 "_ZTv0_n24_N4Rcpp8RostreamILb0EED1Ev"
 "_ZTv0_n24_N4Rcpp8RostreamILb1EED0Ev"
 "_ZTv0_n24_N4Rcpp8RostreamILb1EED1Ev"
 "_ZTVN4Rcpp10RstreambufILb0EEE"
 "_ZTVN4Rcpp10RstreambufILb1EEE"
 "_ZTVN4Rcpp12not_a_matrixE"
 "_ZTVN4Rcpp14not_compatibleE"
 "_ZTVN4Rcpp8RostreamILb0EEE"
 "_ZTVN4Rcpp8RostreamILb1EEE"
 "_ZTVN4Rcpp9exceptionE"
 "_ZZ20rcpp_get_stack_tracevE3fun"
 "_ZZ20rcpp_set_stack_traceP7SEXPRECE3fun"
 "_ZZ7dataptrP7SEXPRECE3fun"
 "_ZZ8demangleRKNSt7__cxx1112basic_stringIcSt11char_traitsIcESaIcEEEE3funB5cxx11"
 "_ZZN4Rcpp20Rcpp_precious_removeEP7SEXPRECE3fun"
 "_ZZN4Rcpp22Rcpp_precious_preserveEP7SEXPRECE3fun"
 "_ZZN4Rcpp8internal12exitRNGScopeEvE3fun"
 "_ZZN4Rcpp8internal13enterRNGScopeEvE3fun"
 "R_init_CInLPN2"
 "_Z11f_marker_uiRN4arma3ColIdEEiNS_3MatIdEES2_S2_dRS4_S5_S5_S2_S5_S2_S2_S5_S2_S2_S2_S5_S2_S2_S2_"
 "_Z11f_mat_printRN4arma3MatIdEE"
 "_Z12GmatA0totauiiRN4arma3ColIdEES2_dNS_3MatIdEE"
 "_Z13f_survival_uiRN4arma3ColIdEEddiS2_S2_RNS_3MatIdEES5_S2_S2_S2_iS2_ibidS5_S2_S5_S2_S5_S5_i"
 "_Z13f_Yi_r_NA_by0RN4arma3MatIdEE"
 "_Z13fct_risq_basediRN4arma3ColIdEEiS2_iS2_bi"
 "_Z15fct_surv_KonroddRN4arma3ColIdEES2_RNS_3MatIdEES5_S2_iS2_iS2_S2_S2_ibidS5_S2_S5_S2_S5_S5_iS2_"
 "_Z15GmatprodAstotauiRN4arma3ColIdEES2_idNS_3MatIdEE"
 "_Z17tsGmatprodA0totauiRN4arma3ColIdEES2_dNS_3MatIdEE"
 "_Z21fct_pred_curlev_slopeRN4arma3ColIdEES2_S2_S2_RNS_3MatIdEES5_S2_iS2_S2_iidS5_S2_S5_S2_S5_S5_S2_iS2_S2_ibi"
 "_Z4aijtiN4arma3ColIdEENS_3MatIdEE"
 "_Z5ProdAiiidRN4arma3ColIdEERNS_3MatIdEE"
 "_Z5YiNuiiN4arma3MatIdEERNS_3ColIdEES4_dRS1_S5_S4_S5_S4_S5_"
 "_Z6matHitN4arma3ColIdEE"
 "_Z6matNuiiRN4arma3ColIdEEdRNS_3MatIdEES2_S5_S2_S5_"
 "_Z6matTikN4arma3ColIdEES1_"
 "_Z6mvnormiN4arma3ColIdEENS_3MatIdEE"
 "_Z6YiwoNAN4arma3ColIdEE"
 "_Z7ConstrAiidRN4arma3ColIdEERNS_3MatIdEE"
 "_Z7vecaijtiiRN4arma3ColIdEERNS_3MatIdEE"
 "_Z8DparCholiRN4arma3ColIdEE"
 "_Z8f_markerRN4arma3MatIdEEiS1_RNS_3ColIdEES5_dS2_S2_S2_S5_S2_S5_S5_S2_S5_S5_S5_S2_S5_S5_S5_"
 "_Z8Isnotnand"
 "_Z8KmatDiagRN4arma3ColIdEE"
 "_Z8VecToMatRN4arma3ColIdEEii"
 "_Z9compoYiNARN4arma3MatIdEE"
 "_Z9f_inv_matRN4arma3MatIdEE"
 "_Z9InnerProdN4arma3ColIdEES1_"
 "_Z9matNui_uiiRN4arma3ColIdEEdRNS_3MatIdEES2_S5_S2_S5_S2_S5_b"
 "_Z9normalCDFdb"
 "_Z9vectoriseRN4arma3MatIdEE"
 "_ZGVN4arma5DatumIdE3nanE"
 "_ZGVZ7dataptrP7SEXPRECE3fun"
 "_ZGVZN4Rcpp20Rcpp_precious_removeEP7SEXPRECE3fun"
 "_ZGVZN4Rcpp22Rcpp_precious_preserveEP7SEXPRECE3fun"
 "_ZN10tinyformat6detail10formatImplERSoPKcPKNS0_9FormatArgEi"
 "_ZN10tinyformat6detail21streamStateFromFormatERSoRbRiPKcPKNS0_9FormatArgES3_i"
 "_ZN10tinyformat6detail9FormatArg10formatImplIPKcEEvRSoS4_S4_iPKv"
 "_ZN10tinyformat6detail9FormatArg9toIntImplIPKcEEiPKv"
 "_ZN10tinyformat6formatIJPKcEEENSt7__cxx1112basic_stringIcSt11char_traitsIcESaIcEEES2_DpRKT_"
 "_ZN10tinyformat6formatIJPKcS2_EEENSt7__cxx1112basic_stringIcSt11char_traitsIcESaIcEEES2_DpRKT_"
 "_ZN4arma10glue_times5applyIdLb0ELb0ELb1ENS_3MatIdEENS_3ColIdEEEEvRNS2_IT_EERKT3_RKT4_S6_"
 "_ZN4arma13subview_elem1IdNS_4mtOpIjNS_3ColIdEENS_17op_find_nonfiniteEEEE7extractERNS_3MatIdEERKS6_"
 "_ZN4arma27glue_times_redirect2_helperILb0EE5applyINS_7subviewIdEENS_3ColIdEEEEvRNS_3MatINT_9elem_typeEEERKNS_4GlueIS8_T0_NS_10glue_timesEEE"
 "_ZN4arma27glue_times_redirect2_helperILb0EE5applyINS_7subviewIdEENS_3MatIdEEEEvRNS5_INT_9elem_typeEEERKNS_4GlueIS7_T0_NS_10glue_timesEEE"
 "_ZN4arma3MatIdE10soft_resetEv"
 "_ZN4arma3MatIdE5resetEv"
 "_ZN4arma3MatIdE9init_coldEv"
 "_ZN4arma3MatIdE9init_warmEjj"
 "_ZN4arma3MatIdE9steal_memERS1_b"
 "_ZN4arma3MatIjE13steal_mem_colERS1_j"
 "_ZN4arma3MatIjE5resetEv"
 "_ZN4arma3MatIjE9init_warmEjj"
 "_ZN4arma5DatumIdE3nanE"
 "_ZN4arma5ProxyINS_4GlueINS_7subviewIdEENS_3ColIdEENS_10glue_timesEEEED1Ev"
 "_ZN4arma5ProxyINS_4GlueINS_7subviewIdEENS_3MatIdEENS_10glue_timesEEEED1Ev"
 "_ZN4arma7subviewIdE10inplace_opINS_15op_internal_equEEEvRKS1_PKc"
 "_ZN4arma7subviewIdE10inplace_opINS_15op_internal_equENS_2OpINS_11subview_colIdEENS_9op_htransEEEEEvRKNS_4BaseIdT0_EEPKc"
 "_ZN4arma7subviewIdE10inplace_opINS_15op_internal_equENS_2OpINS_3MatIdEENS_9op_htransEEEEEvRKNS_4BaseIdT0_EEPKc"
 "_ZN4arma7subviewIdE10inplace_opINS_15op_internal_equENS_3MatIdEEEEvRKNS_4BaseIdT0_EEPKc"
 "_ZN4arma7subviewIdE10inplace_opINS_15op_internal_equENS_4GlueINS_2OpINS_3ColIdEENS_9op_htransEEENS_11subview_colIdEENS_10glue_timesEEEEEvRKNS_4BaseIdT0_EEPKc"
 "_ZN4arma7subviewIdE10inplace_opINS_16op_internal_plusEEEvd"
 "_ZN4arma7subviewIdE10inplace_opINS_16op_internal_plusENS_4GlueINS_2OpINS_3ColIdEENS_9op_htransEEENS_11subview_colIdEENS_10glue_timesEEEEEvRKNS_4BaseIdT0_EEPKc"
 "_ZN4arma7subviewIdE7extractERNS_3MatIdEERKS1_"
 "_ZN4arma8arrayops17inplace_plus_baseIdEEvPT_PKS2_j"
 "_ZN4arma9op_strans17apply_mat_noaliasIdNS_3MatIdEEEEvRNS2_IT_EERKT0_"
 "_ZN4Rcpp10RstreambufILb0EE4syncEv"
 "_ZN4Rcpp10RstreambufILb0EE6xsputnEPKcx"
 "_ZN4Rcpp10RstreambufILb0EE8overflowEi"
 "_ZN4Rcpp10RstreambufILb0EED0Ev"
 "_ZN4Rcpp10RstreambufILb0EED1Ev"
 "_ZN4Rcpp10RstreambufILb1EE4syncEv"
 "_ZN4Rcpp10RstreambufILb1EE6xsputnEPKcx"
 "_ZN4Rcpp10RstreambufILb1EE8overflowEi"
 "_ZN4Rcpp10RstreambufILb1EED0Ev"
 "_ZN4Rcpp10RstreambufILb1EED1Ev"
 "_ZN4Rcpp13RcppArmadillo9arma_wrapIN4arma3ColIdEEEEP7SEXPRECRKT_RKNS_9DimensionE"
 "_ZN4Rcpp13unwindProtectEPFP7SEXPRECPvES2_"
 "_ZN4Rcpp14not_compatibleC1IJPKcEEES3_DpOT_"
 "_ZN4Rcpp14not_compatibleD0Ev"
 "_ZN4Rcpp14not_compatibleD1Ev"
 "_ZN4Rcpp16Environment_ImplINS_15PreserveStorageEEC1ERKNSt7__cxx1112basic_stringIcSt11char_traitsIcESaIcEEE"
 "_ZN4Rcpp20Rcpp_precious_removeEP7SEXPREC"
 "_ZN4Rcpp4growINS_6traits12named_objectIN4arma3ColIdEEEEEEP7SEXPRECRKT_S8_"
 "_ZN4Rcpp4growINS_6traits12named_objectIN4arma3MatIdEEEEEEP7SEXPRECRKT_S8_"
 "_ZN4Rcpp4stopERKNSt7__cxx1112basic_stringIcSt11char_traitsIcESaIcEEE"
 "_ZN4Rcpp4wrapIdEEP7SEXPRECRKN4arma3ColIT_EE"
 "_ZN4Rcpp4wrapIdEEP7SEXPRECRKN4arma3MatIT_EE"
 "_ZN4Rcpp6ShieldIP7SEXPRECED1Ev"
 "_ZN4Rcpp8internal10basic_castILi14EEEP7SEXPRECS3_"
 "_ZN4Rcpp8internal19Rcpp_protected_evalEPv"
 "_ZN4Rcpp8internal9maybeJumpEPv8Rboolean"
 "_ZN4Rcpp8pairlistINS_6traits12named_objectIiEENS2_IN4arma3ColIdEEEENS2_INS4_3MatIdEEEEEEP7SEXPRECRKT_RKT0_RKT1_"
 "_ZN4Rcpp8RostreamILb0EED0Ev"
 "_ZN4Rcpp8RostreamILb0EED1Ev"
 "_ZN4Rcpp8RostreamILb1EED0Ev"
 "_ZN4Rcpp8RostreamILb1EED1Ev"
 "_ZN4Rcpp9exceptionC1EPKcb"
 "_ZN4Rcpp9exceptionD0Ev"
 "_ZN4Rcpp9exceptionD1Ev"
 "_ZNK4Rcpp13BindingPolicyINS_16Environment_ImplINS_15PreserveStorageEEEE7BindingcvT_INS_13Function_ImplIS2_EEEEv"
 "_ZNK4Rcpp14not_compatible4whatEv"
 "_ZNK4Rcpp9exception4whatEv"
 "_ZNKSt5ctypeIcE8do_widenEc"
 "_ZNSt7__cxx1115basic_stringbufIcSt11char_traitsIcESaIcEED1Ev"
 "_ZTCN4Rcpp8RostreamILb0EEE0_So"
 "_ZTCN4Rcpp8RostreamILb1EEE0_So"
 "_ZTIN4Rcpp10eval_errorE"
 "_ZTIN4Rcpp10RstreambufILb0EEE"
 "_ZTIN4Rcpp10RstreambufILb1EEE"
 "_ZTIN4Rcpp14not_compatibleE"
 "_ZTIN4Rcpp17LongjumpExceptionE"
 "_ZTIN4Rcpp8RostreamILb0EEE"
 "_ZTIN4Rcpp8RostreamILb1EEE"
 "_ZTIN4Rcpp9exceptionE"
 "_ZTISt11logic_error"
 "_ZTISt12out_of_range"
 "_ZTISt13runtime_error"
 "_ZTISt9bad_alloc"
 "_ZTISt9exception"
 "_ZTSN4Rcpp10eval_errorE"
 "_ZTSN4Rcpp10RstreambufILb0EEE"
 "_ZTSN4Rcpp10RstreambufILb1EEE"
 "_ZTSN4Rcpp14not_compatibleE"
 "_ZTSN4Rcpp17LongjumpExceptionE"
 "_ZTSN4Rcpp8RostreamILb0EEE"
 "_ZTSN4Rcpp8RostreamILb1EEE"
 "_ZTSN4Rcpp9exceptionE"
 "_ZTSSt11logic_error"
 "_ZTSSt12out_of_range"
 "_ZTSSt13runtime_error"
 "_ZTSSt9bad_alloc"
 "_ZTSSt9exception"
 "_ZTTN4Rcpp8RostreamILb0EEE"
 "_ZTTN4Rcpp8RostreamILb1EEE"
 "_ZTv0_n24_N4Rcpp8RostreamILb0EED0Ev"
 "_ZTv0_n24_N4Rcpp8RostreamILb0EED1Ev"
 "_ZTv0_n24_N4Rcpp8RostreamILb1EED0Ev"
 "_ZTv0_n24_N4Rcpp8RostreamILb1EED1Ev"
 "_ZTVN4Rcpp10RstreambufILb0EEE"
 "_ZTVN4Rcpp10RstreambufILb1EEE"
 "_ZTVN4Rcpp14not_compatibleE"
 "_ZTVN4Rcpp8RostreamILb0EEE"
 "_ZTVN4Rcpp8RostreamILb1EEE"
 "_ZTVN4Rcpp9exceptionE"
 "_ZZ7dataptrP7SEXPRECE3fun"
 "_ZZN4arma16arma_cerr_streamIcEERSoPSoE11cerr_stream"
 "_ZZN4Rcpp20Rcpp_precious_removeEP7SEXPRECE3fun"
 "_ZZN4Rcpp22Rcpp_precious_preserveEP7SEXPRECE3fun"
